target datalayout = "e-m:e-p270:32:32-p271:32:32-p272:64:64-i64:64-i128:128-f80:128-n8:16:32:64-S128"
target triple = "x86_64-pc-linux-gnu"

%struct.expert_field = type { i32, i32 }
%struct._e_guid_t = type { i32, i16, i16, [8 x i8] }

@hf_pn_io_send_clock_factor = internal global i32 0, align 4
@hf_pn_io_tsn_nme_parameter_uuid = internal global i32 0, align 4
@hf_pn_io_tsn_domain_vid_config = internal global i32 0, align 4
@hf_pn_io_tsn_domain_vid_config_stream_high_vid = internal global i32 0, align 4
@hf_pn_io_tsn_domain_vid_config_stream_high_red_vid = internal global i32 0, align 4
@hf_pn_io_tsn_domain_vid_config_stream_low_vid = internal global i32 0, align 4
@hf_pn_io_tsn_domain_vid_config_stream_low_red_vid = internal global i32 0, align 4
@hf_pn_io_tsn_domain_vid_config_non_stream_vid = internal global i32 0, align 4
@hf_pn_io_tsn_domain_vid_config_non_stream_vid_B = internal global i32 0, align 4
@hf_pn_io_tsn_domain_vid_config_non_stream_vid_C = internal global i32 0, align 4
@hf_pn_io_tsn_domain_vid_config_non_stream_vid_D = internal global i32 0, align 4
@hf_pn_io_tsn_domain_vid_config_reserved = internal global i32 0, align 4
@hf_pn_io_number_of_tsn_time_data_block_entries = internal global i32 0, align 4
@hf_pn_io_network_deadline = internal global i32 0, align 4
@hf_pn_io_tsn_nme_name_uuid = internal global i32 0, align 4
@hf_pn_io_tsn_nme_name_length = internal global i32 0, align 4
@hf_pn_io_tsn_nme_name = internal global i32 0, align 4
@hf_pn_io_tsn_domain_uuid = internal global i32 0, align 4
@hf_pn_io_tsn_domain_name_length = internal global i32 0, align 4
@hf_pn_io_tsn_domain_name = internal global i32 0, align 4
@ett_pn_io_tsn_domain_vid_config = internal global i32 0, align 4
@ei_pn_io_block_version = internal global %struct.expert_field zeroinitializer, align 4
@.str.1317 = private unnamed_addr constant [41 x i8] c"Block version %u.%u not implemented yet!\00", align 1

; Function Attrs: nounwind uwtable
define internal i32 @dissect_a_block(ptr noundef %0, i32 noundef %1, ptr noundef %2, ptr noundef %3, ptr noundef %4) #0 {
  %6 = alloca ptr, align 8
  %7 = alloca i32, align 4
  %8 = alloca ptr, align 8
  %9 = alloca ptr, align 8
  %10 = alloca ptr, align 8
  %11 = alloca i16, align 2
  %12 = alloca i32, align 4
  %13 = alloca ptr, align 8
  store ptr %0, ptr %6, align 8
  store i32 %1, ptr %7, align 4
  store ptr %2, ptr %8, align 8
  store ptr %3, ptr %9, align 8
  store ptr %4, ptr %10, align 8
  store i16 0, ptr %11, align 2
  store ptr null, ptr %13, align 8
  %14 = load ptr, ptr %6, align 8
  %15 = load i32, ptr %7, align 4
  %16 = load ptr, ptr %8, align 8
  %17 = load ptr, ptr %9, align 8
  %18 = load ptr, ptr %10, align 8
  %19 = call i32 @dissect_block(ptr noundef %14, i32 noundef %15, ptr noundef %16, ptr noundef %17, ptr noundef %18, ptr noundef %11, ptr noundef %12, ptr noundef %13)
  store i32 %19, ptr %7, align 4
  %20 = load ptr, ptr %13, align 8
  %21 = icmp ne ptr %20, null
  br i1 %21, label %22, label %27

22:                                               ; preds = %5
  %23 = load ptr, ptr %6, align 8
  %24 = load ptr, ptr %8, align 8
  %25 = load ptr, ptr %9, align 8
  %26 = load ptr, ptr %13, align 8
  call void @pnio_ar_info(ptr noundef %23, ptr noundef %24, ptr noundef %25, ptr noundef %26)
  br label %27

27:                                               ; preds = %22, %5
  %28 = load i32, ptr %7, align 4
  ret i32 %28
}

; Function Attrs: nounwind uwtable
define internal i32 @dissect_TSNNetworkControlDataReal_block(ptr noundef %0, i32 noundef %1, ptr noundef %2, ptr noundef %3, ptr noundef %4, ptr noundef %5, i8 noundef zeroext %6, i8 noundef zeroext %7) #0 {
  %9 = alloca i32, align 4
  %10 = alloca ptr, align 8
  %11 = alloca i32, align 4
  %12 = alloca ptr, align 8
  %13 = alloca ptr, align 8
  %14 = alloca ptr, align 8
  %15 = alloca ptr, align 8
  %16 = alloca i8, align 1
  %17 = alloca i8, align 1
  %18 = alloca ptr, align 8
  %19 = alloca ptr, align 8
  %20 = alloca %struct._e_guid_t, align 4
  %21 = alloca i32, align 4
  %22 = alloca i16, align 2
  %23 = alloca i16, align 2
  %24 = alloca i16, align 2
  %25 = alloca i16, align 2
  %26 = alloca %struct._e_guid_t, align 4
  %27 = alloca %struct._e_guid_t, align 4
  %28 = alloca i32, align 4
  store ptr %0, ptr %10, align 8
  store i32 %1, ptr %11, align 4
  store ptr %2, ptr %12, align 8
  store ptr %3, ptr %13, align 8
  store ptr %4, ptr %14, align 8
  store ptr %5, ptr %15, align 8
  store i8 %6, ptr %16, align 1
  store i8 %7, ptr %17, align 1
  %29 = load i8, ptr %16, align 1
  %30 = zext i8 %29 to i32
  %31 = icmp ne i32 %30, 1
  br i1 %31, label %36, label %32

32:                                               ; preds = %8
  %33 = load i8, ptr %17, align 1
  %34 = zext i8 %33 to i32
  %35 = icmp ne i32 %34, 0
  br i1 %35, label %36, label %45

36:                                               ; preds = %32, %8
  %37 = load ptr, ptr %12, align 8
  %38 = load ptr, ptr %14, align 8
  %39 = load i8, ptr %16, align 1
  %40 = zext i8 %39 to i32
  %41 = load i8, ptr %17, align 1
  %42 = zext i8 %41 to i32
  %43 = call ptr (ptr, ptr, ptr, ptr, ...) @expert_add_info_format(ptr noundef %37, ptr noundef %38, ptr noundef @ei_pn_io_block_version, ptr noundef @.str.1317, i32 noundef %40, i32 noundef %42)
  %44 = load i32, ptr %11, align 4
  store i32 %44, ptr %9, align 4
  br label %230

45:                                               ; preds = %32
  %46 = load ptr, ptr %10, align 8
  %47 = load i32, ptr %11, align 4
  %48 = load ptr, ptr %12, align 8
  %49 = load ptr, ptr %13, align 8
  %50 = call i32 @dissect_pn_padding(ptr noundef %46, i32 noundef %47, ptr noundef %48, ptr noundef %49, i32 noundef 2)
  store i32 %50, ptr %11, align 4
  %51 = load ptr, ptr %10, align 8
  %52 = load i32, ptr %11, align 4
  %53 = load ptr, ptr %12, align 8
  %54 = load ptr, ptr %13, align 8
  %55 = load i32, ptr @hf_pn_io_tsn_nme_parameter_uuid, align 4
  %56 = call i32 @dissect_pn_uuid(ptr noundef %51, i32 noundef %52, ptr noundef %53, ptr noundef %54, i32 noundef %55, ptr noundef %20)
  store i32 %56, ptr %11, align 4
  %57 = load ptr, ptr %13, align 8
  %58 = load i32, ptr @hf_pn_io_tsn_domain_vid_config, align 4
  %59 = load ptr, ptr %10, align 8
  %60 = load i32, ptr %11, align 4
  %61 = call ptr @proto_tree_add_item(ptr noundef %57, i32 noundef %58, ptr noundef %59, i32 noundef %60, i32 noundef 16, i32 noundef 0)
  store ptr %61, ptr %18, align 8
  %62 = load ptr, ptr %18, align 8
  %63 = load i32, ptr @ett_pn_io_tsn_domain_vid_config, align 4
  %64 = call ptr @proto_item_add_subtree(ptr noundef %62, i32 noundef %63)
  store ptr %64, ptr %19, align 8
  %65 = load i32, ptr %11, align 4
  %66 = shl i32 %65, 3
  store i32 %66, ptr %28, align 4
  %67 = load ptr, ptr %19, align 8
  %68 = load i32, ptr @hf_pn_io_tsn_domain_vid_config_reserved, align 4
  %69 = load ptr, ptr %10, align 8
  %70 = load i32, ptr %28, align 4
  %71 = call ptr @proto_tree_add_bits_item(ptr noundef %67, i32 noundef %68, ptr noundef %69, i32 noundef %70, i32 noundef 32, i32 noundef 0)
  %72 = load i32, ptr %28, align 4
  %73 = add i32 %72, 32
  store i32 %73, ptr %28, align 4
  %74 = load ptr, ptr %19, align 8
  %75 = load i32, ptr @hf_pn_io_tsn_domain_vid_config_non_stream_vid_D, align 4
  %76 = load ptr, ptr %10, align 8
  %77 = load i32, ptr %28, align 4
  %78 = call ptr @proto_tree_add_bits_item(ptr noundef %74, i32 noundef %75, ptr noundef %76, i32 noundef %77, i32 noundef 12, i32 noundef 0)
  %79 = load i32, ptr %28, align 4
  %80 = add i32 %79, 12
  store i32 %80, ptr %28, align 4
  %81 = load ptr, ptr %19, align 8
  %82 = load i32, ptr @hf_pn_io_tsn_domain_vid_config_non_stream_vid_C, align 4
  %83 = load ptr, ptr %10, align 8
  %84 = load i32, ptr %28, align 4
  %85 = call ptr @proto_tree_add_bits_item(ptr noundef %81, i32 noundef %82, ptr noundef %83, i32 noundef %84, i32 noundef 12, i32 noundef 0)
  %86 = load i32, ptr %28, align 4
  %87 = add i32 %86, 12
  store i32 %87, ptr %28, align 4
  %88 = load ptr, ptr %19, align 8
  %89 = load i32, ptr @hf_pn_io_tsn_domain_vid_config_non_stream_vid_B, align 4
  %90 = load ptr, ptr %10, align 8
  %91 = load i32, ptr %28, align 4
  %92 = call ptr @proto_tree_add_bits_item(ptr noundef %88, i32 noundef %89, ptr noundef %90, i32 noundef %91, i32 noundef 12, i32 noundef 0)
  %93 = load i32, ptr %28, align 4
  %94 = add i32 %93, 12
  store i32 %94, ptr %28, align 4
  %95 = load ptr, ptr %19, align 8
  %96 = load i32, ptr @hf_pn_io_tsn_domain_vid_config_non_stream_vid, align 4
  %97 = load ptr, ptr %10, align 8
  %98 = load i32, ptr %28, align 4
  %99 = call ptr @proto_tree_add_bits_item(ptr noundef %95, i32 noundef %96, ptr noundef %97, i32 noundef %98, i32 noundef 12, i32 noundef 0)
  %100 = load i32, ptr %28, align 4
  %101 = add i32 %100, 12
  store i32 %101, ptr %28, align 4
  %102 = load ptr, ptr %19, align 8
  %103 = load i32, ptr @hf_pn_io_tsn_domain_vid_config_stream_low_red_vid, align 4
  %104 = load ptr, ptr %10, align 8
  %105 = load i32, ptr %28, align 4
  %106 = call ptr @proto_tree_add_bits_item(ptr noundef %102, i32 noundef %103, ptr noundef %104, i32 noundef %105, i32 noundef 12, i32 noundef 0)
  %107 = load i32, ptr %28, align 4
  %108 = add i32 %107, 12
  store i32 %108, ptr %28, align 4
  %109 = load ptr, ptr %19, align 8
  %110 = load i32, ptr @hf_pn_io_tsn_domain_vid_config_stream_low_vid, align 4
  %111 = load ptr, ptr %10, align 8
  %112 = load i32, ptr %28, align 4
  %113 = call ptr @proto_tree_add_bits_item(ptr noundef %109, i32 noundef %110, ptr noundef %111, i32 noundef %112, i32 noundef 12, i32 noundef 0)
  %114 = load i32, ptr %28, align 4
  %115 = add i32 %114, 12
  store i32 %115, ptr %28, align 4
  %116 = load ptr, ptr %19, align 8
  %117 = load i32, ptr @hf_pn_io_tsn_domain_vid_config_stream_high_red_vid, align 4
  %118 = load ptr, ptr %10, align 8
  %119 = load i32, ptr %28, align 4
  %120 = call ptr @proto_tree_add_bits_item(ptr noundef %116, i32 noundef %117, ptr noundef %118, i32 noundef %119, i32 noundef 12, i32 noundef 0)
  %121 = load i32, ptr %28, align 4
  %122 = add i32 %121, 12
  store i32 %122, ptr %28, align 4
  %123 = load ptr, ptr %19, align 8
  %124 = load i32, ptr @hf_pn_io_tsn_domain_vid_config_stream_high_vid, align 4
  %125 = load ptr, ptr %10, align 8
  %126 = load i32, ptr %28, align 4
  %127 = call ptr @proto_tree_add_bits_item(ptr noundef %123, i32 noundef %124, ptr noundef %125, i32 noundef %126, i32 noundef 12, i32 noundef 0)
  %128 = load i32, ptr %11, align 4
  %129 = add i32 %128, 16
  store i32 %129, ptr %11, align 4
  %130 = load ptr, ptr %10, align 8
  %131 = load i32, ptr %11, align 4
  %132 = load ptr, ptr %12, align 8
  %133 = load ptr, ptr %13, align 8
  %134 = load ptr, ptr %15, align 8
  %135 = call i32 @dissect_a_block(ptr noundef %130, i32 noundef %131, ptr noundef %132, ptr noundef %133, ptr noundef %134)
  store i32 %135, ptr %11, align 4
  %136 = load ptr, ptr %10, align 8
  %137 = load i32, ptr %11, align 4
  %138 = load ptr, ptr %12, align 8
  %139 = load ptr, ptr %13, align 8
  %140 = load ptr, ptr %15, align 8
  %141 = load i32, ptr @hf_pn_io_network_deadline, align 4
  %142 = call i32 @dissect_dcerpc_uint32(ptr noundef %136, i32 noundef %137, ptr noundef %138, ptr noundef %139, ptr noundef %140, i32 noundef %141, ptr noundef %21)
  store i32 %142, ptr %11, align 4
  %143 = load ptr, ptr %10, align 8
  %144 = load i32, ptr %11, align 4
  %145 = load ptr, ptr %12, align 8
  %146 = load ptr, ptr %13, align 8
  %147 = load ptr, ptr %15, align 8
  %148 = load i32, ptr @hf_pn_io_send_clock_factor, align 4
  %149 = call i32 @dissect_dcerpc_uint16(ptr noundef %143, i32 noundef %144, ptr noundef %145, ptr noundef %146, ptr noundef %147, i32 noundef %148, ptr noundef %22)
  store i32 %149, ptr %11, align 4
  %150 = load ptr, ptr %10, align 8
  %151 = load i32, ptr %11, align 4
  %152 = load ptr, ptr %12, align 8
  %153 = load ptr, ptr %13, align 8
  %154 = load ptr, ptr %15, align 8
  %155 = load i32, ptr @hf_pn_io_number_of_tsn_time_data_block_entries, align 4
  %156 = call i32 @dissect_dcerpc_uint16(ptr noundef %150, i32 noundef %151, ptr noundef %152, ptr noundef %153, ptr noundef %154, i32 noundef %155, ptr noundef %23)
  store i32 %156, ptr %11, align 4
  br label %157

157:                                              ; preds = %161, %45
  %158 = load i16, ptr %23, align 2
  %159 = zext i16 %158 to i32
  %160 = icmp sgt i32 %159, 0
  br i1 %160, label %161, label %170

161:                                              ; preds = %157
  %162 = load i16, ptr %23, align 2
  %163 = add i16 %162, -1
  store i16 %163, ptr %23, align 2
  %164 = load ptr, ptr %10, align 8
  %165 = load i32, ptr %11, align 4
  %166 = load ptr, ptr %12, align 8
  %167 = load ptr, ptr %13, align 8
  %168 = load ptr, ptr %15, align 8
  %169 = call i32 @dissect_a_block(ptr noundef %164, i32 noundef %165, ptr noundef %166, ptr noundef %167, ptr noundef %168)
  store i32 %169, ptr %11, align 4
  br label %157, !llvm.loop !63

170:                                              ; preds = %157
  %171 = load ptr, ptr %10, align 8
  %172 = load i32, ptr %11, align 4
  %173 = load ptr, ptr %12, align 8
  %174 = load ptr, ptr %13, align 8
  %175 = load i32, ptr @hf_pn_io_tsn_nme_name_uuid, align 4
  %176 = call i32 @dissect_pn_uuid(ptr noundef %171, i32 noundef %172, ptr noundef %173, ptr noundef %174, i32 noundef %175, ptr noundef %26)
  store i32 %176, ptr %11, align 4
  %177 = load ptr, ptr %10, align 8
  %178 = load i32, ptr %11, align 4
  %179 = load ptr, ptr %12, align 8
  %180 = load ptr, ptr %13, align 8
  %181 = load ptr, ptr %15, align 8
  %182 = load i32, ptr @hf_pn_io_tsn_nme_name_length, align 4
  %183 = call i32 @dissect_dcerpc_uint16(ptr noundef %177, i32 noundef %178, ptr noundef %179, ptr noundef %180, ptr noundef %181, i32 noundef %182, ptr noundef %24)
  store i32 %183, ptr %11, align 4
  %184 = load ptr, ptr %13, align 8
  %185 = load i32, ptr @hf_pn_io_tsn_nme_name, align 4
  %186 = load ptr, ptr %10, align 8
  %187 = load i32, ptr %11, align 4
  %188 = load i16, ptr %24, align 2
  %189 = zext i16 %188 to i32
  %190 = call ptr @proto_tree_add_item(ptr noundef %184, i32 noundef %185, ptr noundef %186, i32 noundef %187, i32 noundef %189, i32 noundef 0)
  %191 = load i16, ptr %24, align 2
  %192 = zext i16 %191 to i32
  %193 = load i32, ptr %11, align 4
  %194 = add i32 %193, %192
  store i32 %194, ptr %11, align 4
  %195 = load ptr, ptr %10, align 8
  %196 = load i32, ptr %11, align 4
  %197 = load ptr, ptr %12, align 8
  %198 = load ptr, ptr %13, align 8
  %199 = call i32 @dissect_pn_align4(ptr noundef %195, i32 noundef %196, ptr noundef %197, ptr noundef %198)
  store i32 %199, ptr %11, align 4
  %200 = load ptr, ptr %10, align 8
  %201 = load i32, ptr %11, align 4
  %202 = load ptr, ptr %12, align 8
  %203 = load ptr, ptr %13, align 8
  %204 = load i32, ptr @hf_pn_io_tsn_domain_uuid, align 4
  %205 = call i32 @dissect_pn_uuid(ptr noundef %200, i32 noundef %201, ptr noundef %202, ptr noundef %203, i32 noundef %204, ptr noundef %27)
  store i32 %205, ptr %11, align 4
  %206 = load ptr, ptr %10, align 8
  %207 = load i32, ptr %11, align 4
  %208 = load ptr, ptr %12, align 8
  %209 = load ptr, ptr %13, align 8
  %210 = load ptr, ptr %15, align 8
  %211 = load i32, ptr @hf_pn_io_tsn_domain_name_length, align 4
  %212 = call i32 @dissect_dcerpc_uint16(ptr noundef %206, i32 noundef %207, ptr noundef %208, ptr noundef %209, ptr noundef %210, i32 noundef %211, ptr noundef %25)
  store i32 %212, ptr %11, align 4
  %213 = load ptr, ptr %13, align 8
  %214 = load i32, ptr @hf_pn_io_tsn_domain_name, align 4
  %215 = load ptr, ptr %10, align 8
  %216 = load i32, ptr %11, align 4
  %217 = load i16, ptr %25, align 2
  %218 = zext i16 %217 to i32
  %219 = call ptr @proto_tree_add_item(ptr noundef %213, i32 noundef %214, ptr noundef %215, i32 noundef %216, i32 noundef %218, i32 noundef 0)
  %220 = load i16, ptr %25, align 2
  %221 = zext i16 %220 to i32
  %222 = load i32, ptr %11, align 4
  %223 = add i32 %222, %221
  store i32 %223, ptr %11, align 4
  %224 = load ptr, ptr %10, align 8
  %225 = load i32, ptr %11, align 4
  %226 = load ptr, ptr %12, align 8
  %227 = load ptr, ptr %13, align 8
  %228 = call i32 @dissect_pn_align4(ptr noundef %224, i32 noundef %225, ptr noundef %226, ptr noundef %227)
  store i32 %228, ptr %11, align 4
  %229 = load i32, ptr %11, align 4
  store i32 %229, ptr %9, align 4
  br label %230

230:                                              ; preds = %170, %36
  %231 = load i32, ptr %9, align 4
  ret i32 %231
}