; Function Attrs: nounwind uwtable
define internal fastcc void @dissect_TSNNetworkControlDataReal_block(ptr noundef %0, i32 noundef %1, ptr noundef %2, ptr noundef %3, ptr noundef %4, ptr noundef %5, i8 noundef zeroext %6, i8 noundef zeroext %7) unnamed_addr #0 {
  %9 = alloca i16, align 2
  %10 = alloca i32, align 4
  %11 = alloca ptr, align 8
  %12 = alloca i16, align 2
  %13 = alloca i32, align 4
  %14 = alloca ptr, align 8
  %15 = alloca %struct._e_guid_t, align 4
  %16 = alloca i32, align 4
  %17 = alloca i16, align 2
  %18 = alloca i16, align 2
  %19 = alloca i16, align 2
  %20 = alloca i16, align 2
  %21 = alloca %struct._e_guid_t, align 4
  %22 = alloca %struct._e_guid_t, align 4
  %23 = icmp ne i8 %6, 1
  %24 = icmp ne i8 %7, 0
  %or.cond = or i1 %23, %24
  br i1 %or.cond, label %25, label %29

25:                                               ; preds = %8
  %26 = zext i8 %7 to i32
  %27 = zext i8 %6 to i32
  %28 = tail call ptr (ptr, ptr, ptr, ptr, ...) @expert_add_info_format(ptr noundef %2, ptr noundef %4, ptr noundef nonnull @ei_pn_io_block_version, ptr noundef nonnull @.str.1317, i32 noundef %27, i32 noundef %26) #11
  br label %105

29:                                               ; preds = %8
  %30 = tail call i32 @dissect_pn_padding(ptr noundef %0, i32 noundef %1, ptr noundef %2, ptr noundef %3, i32 noundef 2) #11
  %31 = load i32, ptr @hf_pn_io_tsn_nme_parameter_uuid, align 4
  %32 = call i32 @dissect_pn_uuid(ptr noundef %0, i32 noundef %30, ptr noundef %2, ptr noundef %3, i32 noundef %31, ptr noundef nonnull %15) #11
  %33 = load i32, ptr @hf_pn_io_tsn_domain_vid_config, align 4
  %34 = call ptr @proto_tree_add_item(ptr noundef %3, i32 noundef %33, ptr noundef %0, i32 noundef %32, i32 noundef 16, i32 noundef 0) #11
  %35 = load i32, ptr @ett_pn_io_tsn_domain_vid_config, align 4
  %36 = call ptr @proto_item_add_subtree(ptr noundef %34, i32 noundef %35) #11
  %37 = shl i32 %32, 3
  %38 = load i32, ptr @hf_pn_io_tsn_domain_vid_config_reserved, align 4
  %39 = call ptr @proto_tree_add_bits_item(ptr noundef %36, i32 noundef %38, ptr noundef %0, i32 noundef %37, i32 noundef 32, i32 noundef 0) #11
  %40 = add i32 %37, 32
  %41 = load i32, ptr @hf_pn_io_tsn_domain_vid_config_non_stream_vid_D, align 4
  %42 = call ptr @proto_tree_add_bits_item(ptr noundef %36, i32 noundef %41, ptr noundef %0, i32 noundef %40, i32 noundef 12, i32 noundef 0) #11
  %43 = add i32 %37, 44
  %44 = load i32, ptr @hf_pn_io_tsn_domain_vid_config_non_stream_vid_C, align 4
  %45 = call ptr @proto_tree_add_bits_item(ptr noundef %36, i32 noundef %44, ptr noundef %0, i32 noundef %43, i32 noundef 12, i32 noundef 0) #11
  %46 = add i32 %37, 56
  %47 = load i32, ptr @hf_pn_io_tsn_domain_vid_config_non_stream_vid_B, align 4
  %48 = call ptr @proto_tree_add_bits_item(ptr noundef %36, i32 noundef %47, ptr noundef %0, i32 noundef %46, i32 noundef 12, i32 noundef 0) #11
  %49 = add i32 %37, 68
  %50 = load i32, ptr @hf_pn_io_tsn_domain_vid_config_non_stream_vid, align 4
  %51 = call ptr @proto_tree_add_bits_item(ptr noundef %36, i32 noundef %50, ptr noundef %0, i32 noundef %49, i32 noundef 12, i32 noundef 0) #11
  %52 = add i32 %37, 80
  %53 = load i32, ptr @hf_pn_io_tsn_domain_vid_config_stream_low_red_vid, align 4
  %54 = call ptr @proto_tree_add_bits_item(ptr noundef %36, i32 noundef %53, ptr noundef %0, i32 noundef %52, i32 noundef 12, i32 noundef 0) #11
  %55 = add i32 %37, 92
  %56 = load i32, ptr @hf_pn_io_tsn_domain_vid_config_stream_low_vid, align 4
  %57 = call ptr @proto_tree_add_bits_item(ptr noundef %36, i32 noundef %56, ptr noundef %0, i32 noundef %55, i32 noundef 12, i32 noundef 0) #11
  %58 = add i32 %37, 104
  %59 = load i32, ptr @hf_pn_io_tsn_domain_vid_config_stream_high_red_vid, align 4
  %60 = call ptr @proto_tree_add_bits_item(ptr noundef %36, i32 noundef %59, ptr noundef %0, i32 noundef %58, i32 noundef 12, i32 noundef 0) #11
  %61 = add i32 %37, 116
  %62 = load i32, ptr @hf_pn_io_tsn_domain_vid_config_stream_high_vid, align 4
  %63 = call ptr @proto_tree_add_bits_item(ptr noundef %36, i32 noundef %62, ptr noundef %0, i32 noundef %61, i32 noundef 12, i32 noundef 0) #11
  %64 = add i32 %32, 16
  call void @llvm.lifetime.start.p0(i64 2, ptr nonnull %12)
  call void @llvm.lifetime.start.p0(i64 4, ptr nonnull %13)
  call void @llvm.lifetime.start.p0(i64 8, ptr nonnull %14)
  store i16 0, ptr %12, align 2
  store ptr null, ptr %14, align 8
  %65 = call fastcc i32 @dissect_block(ptr noundef %0, i32 noundef %64, ptr noundef %2, ptr noundef %3, ptr noundef %5, ptr noundef %12, ptr noundef %13, ptr noundef %14)
  %66 = load ptr, ptr %14, align 8
  %.not.i = icmp eq ptr %66, null
  br i1 %.not.i, label %dissect_a_block.exit, label %67

67:                                               ; preds = %29
  call fastcc void @pnio_ar_info(ptr noundef %0, ptr noundef %2, ptr noundef %3, ptr noundef %66)
  br label %dissect_a_block.exit

dissect_a_block.exit:                             ; preds = %29, %67
  call void @llvm.lifetime.end.p0(i64 2, ptr nonnull %12)
  call void @llvm.lifetime.end.p0(i64 4, ptr nonnull %13)
  call void @llvm.lifetime.end.p0(i64 8, ptr nonnull %14)
  %68 = load i32, ptr @hf_pn_io_network_deadline, align 4
  %69 = call i32 @dissect_dcerpc_uint32(ptr noundef %0, i32 noundef %65, ptr noundef %2, ptr noundef %3, ptr noundef %5, i32 noundef %68, ptr noundef nonnull %16) #11
  %70 = load i32, ptr @hf_pn_io_send_clock_factor, align 4
  %71 = call i32 @dissect_dcerpc_uint16(ptr noundef %0, i32 noundef %69, ptr noundef %2, ptr noundef %3, ptr noundef %5, i32 noundef %70, ptr noundef nonnull %17) #11
  %72 = load i32, ptr @hf_pn_io_number_of_tsn_time_data_block_entries, align 4
  %73 = call i32 @dissect_dcerpc_uint16(ptr noundef %0, i32 noundef %71, ptr noundef %2, ptr noundef %3, ptr noundef %5, i32 noundef %72, ptr noundef nonnull %18) #11
  %74 = load i16, ptr %18, align 2
  %.not121 = icmp eq i16 %74, 0
  br i1 %.not121, label %._crit_edge, label %.lr.ph

.lr.ph:                                           ; preds = %dissect_a_block.exit, %dissect_a_block.exit120
  %75 = phi i16 [ %80, %dissect_a_block.exit120 ], [ %74, %dissect_a_block.exit ]
  %.0118122 = phi i32 [ %77, %dissect_a_block.exit120 ], [ %73, %dissect_a_block.exit ]
  %76 = add i16 %75, -1
  store i16 %76, ptr %18, align 2
  call void @llvm.lifetime.start.p0(i64 2, ptr nonnull %9)
  call void @llvm.lifetime.start.p0(i64 4, ptr nonnull %10)
  call void @llvm.lifetime.start.p0(i64 8, ptr nonnull %11)
  store i16 0, ptr %9, align 2
  store ptr null, ptr %11, align 8
  %77 = call fastcc i32 @dissect_block(ptr noundef %0, i32 noundef %.0118122, ptr noundef %2, ptr noundef %3, ptr noundef %5, ptr noundef %9, ptr noundef %10, ptr noundef %11)
  %78 = load ptr, ptr %11, align 8
  %.not.i119 = icmp eq ptr %78, null
  br i1 %.not.i119, label %dissect_a_block.exit120, label %79

79:                                               ; preds = %.lr.ph
  call fastcc void @pnio_ar_info(ptr noundef %0, ptr noundef %2, ptr noundef %3, ptr noundef %78)
  br label %dissect_a_block.exit120

dissect_a_block.exit120:                          ; preds = %.lr.ph, %79
  call void @llvm.lifetime.end.p0(i64 2, ptr nonnull %9)
  call void @llvm.lifetime.end.p0(i64 4, ptr nonnull %10)
  call void @llvm.lifetime.end.p0(i64 8, ptr nonnull %11)
  %80 = load i16, ptr %18, align 2
  %.not = icmp eq i16 %80, 0
  br i1 %.not, label %._crit_edge, label %.lr.ph, !llvm.loop !71

._crit_edge:                                      ; preds = %dissect_a_block.exit120, %dissect_a_block.exit
  %.0118.lcssa = phi i32 [ %73, %dissect_a_block.exit ], [ %77, %dissect_a_block.exit120 ]
  %81 = load i32, ptr @hf_pn_io_tsn_nme_name_uuid, align 4
  %82 = call i32 @dissect_pn_uuid(ptr noundef %0, i32 noundef %.0118.lcssa, ptr noundef %2, ptr noundef %3, i32 noundef %81, ptr noundef nonnull %21) #11
  %83 = load i32, ptr @hf_pn_io_tsn_nme_name_length, align 4
  %84 = call i32 @dissect_dcerpc_uint16(ptr noundef %0, i32 noundef %82, ptr noundef %2, ptr noundef %3, ptr noundef %5, i32 noundef %83, ptr noundef nonnull %19) #11
  %85 = load i32, ptr @hf_pn_io_tsn_nme_name, align 4
  %86 = load i16, ptr %19, align 2
  %87 = zext i16 %86 to i32
  %88 = call ptr @proto_tree_add_item(ptr noundef %3, i32 noundef %85, ptr noundef %0, i32 noundef %84, i32 noundef %87, i32 noundef 0) #11
  %89 = load i16, ptr %19, align 2
  %90 = zext i16 %89 to i32
  %91 = add i32 %84, %90
  %92 = call i32 @dissect_pn_align4(ptr noundef %0, i32 noundef %91, ptr noundef %2, ptr noundef %3) #11
  %93 = load i32, ptr @hf_pn_io_tsn_domain_uuid, align 4
  %94 = call i32 @dissect_pn_uuid(ptr noundef %0, i32 noundef %92, ptr noundef %2, ptr noundef %3, i32 noundef %93, ptr noundef nonnull %22) #11
  %95 = load i32, ptr @hf_pn_io_tsn_domain_name_length, align 4
  %96 = call i32 @dissect_dcerpc_uint16(ptr noundef %0, i32 noundef %94, ptr noundef %2, ptr noundef %3, ptr noundef %5, i32 noundef %95, ptr noundef nonnull %20) #11
  %97 = load i32, ptr @hf_pn_io_tsn_domain_name, align 4
  %98 = load i16, ptr %20, align 2
  %99 = zext i16 %98 to i32
  %100 = call ptr @proto_tree_add_item(ptr noundef %3, i32 noundef %97, ptr noundef %0, i32 noundef %96, i32 noundef %99, i32 noundef 0) #11
  %101 = load i16, ptr %20, align 2
  %102 = zext i16 %101 to i32
  %103 = add i32 %96, %102
  %104 = call i32 @dissect_pn_align4(ptr noundef %0, i32 noundef %103, ptr noundef %2, ptr noundef %3) #11
  br label %105

105:                                              ; preds = %._crit_edge, %25
  ret void
}